target datalayout = "e-m:e-p270:32:32-p271:32:32-p272:64:64-i64:64-i128:128-f80:128-n8:16:32:64-S128"
target triple = "x86_64-pc-linux-gnu"

%"struct.open_spiel::colored_trails::Board" = type { i32, i32, i32, %"class.std::vector", %"class.std::vector", %"class.std::vector.9", %"class.std::vector" }
%"class.std::vector.9" = type { %"struct.std::_Vector_base.10" }
%"struct.std::_Vector_base.10" = type { %"struct.std::_Vector_base<std::vector<int>, std::allocator<std::vector<int>>>::_Vector_impl" }
%"struct.std::_Vector_base<std::vector<int>, std::allocator<std::vector<int>>>::_Vector_impl" = type { %"struct.std::_Vector_base<std::vector<int>, std::allocator<std::vector<int>>>::_Vector_impl_data" }
%"struct.std::_Vector_base<std::vector<int>, std::allocator<std::vector<int>>>::_Vector_impl_data" = type { ptr, ptr, ptr }
%"class.std::vector" = type { %"struct.std::_Vector_base" }
%"struct.std::_Vector_base" = type { %"struct.std::_Vector_base<int, std::allocator<int>>::_Vector_impl" }
%"struct.std::_Vector_base<int, std::allocator<int>>::_Vector_impl" = type { %"struct.std::_Vector_base<int, std::allocator<int>>::_Vector_impl_data" }
%"struct.std::_Vector_base<int, std::allocator<int>>::_Vector_impl_data" = type { ptr, ptr, ptr }

@_ZN10open_spiel14colored_trails5BoardC1Eiii = unnamed_addr alias void (ptr, i32, i32, i32), ptr @_ZN10open_spiel14colored_trails5BoardC2Eiii

; Function Attrs: mustprogress uwtable
define void @_ZNK10open_spiel14colored_trails5Board5CloneEv(ptr dead_on_unwind noalias writable sret(%"struct.open_spiel::colored_trails::Board") align 8 %0, ptr noundef nonnull align 8 dereferenceable(112) %1) #4 align 2 personality ptr @__gxx_personality_v0 {
  %3 = alloca ptr, align 8
  %4 = alloca ptr, align 8
  %5 = alloca i1, align 1
  %6 = alloca ptr, align 8
  %7 = alloca i32, align 4
  store ptr %0, ptr %3, align 8
  store ptr %1, ptr %4, align 8
  %8 = load ptr, ptr %4, align 8
  store i1 false, ptr %5, align 1
  %9 = getelementptr inbounds nuw %"struct.open_spiel::colored_trails::Board", ptr %8, i32 0, i32 0
  %10 = load i32, ptr %9, align 8
  %11 = getelementptr inbounds nuw %"struct.open_spiel::colored_trails::Board", ptr %8, i32 0, i32 1
  %12 = load i32, ptr %11, align 4
  %13 = getelementptr inbounds nuw %"struct.open_spiel::colored_trails::Board", ptr %8, i32 0, i32 2
  %14 = load i32, ptr %13, align 8
  call void @_ZN10open_spiel14colored_trails5BoardC1Eiii(ptr noundef nonnull align 8 dereferenceable(112) %0, i32 noundef %10, i32 noundef %12, i32 noundef %14)
  %15 = getelementptr inbounds nuw %"struct.open_spiel::colored_trails::Board", ptr %8, i32 0, i32 3
  %16 = getelementptr inbounds nuw %"struct.open_spiel::colored_trails::Board", ptr %0, i32 0, i32 3
  %17 = invoke noundef nonnull align 8 dereferenceable(24) ptr @_ZNSt6vectorIiSaIiEEaSERKS1_(ptr noundef nonnull align 8 dereferenceable(24) %16, ptr noundef nonnull align 8 dereferenceable(24) %15)
          to label %18 unwind label %32

18:                                               ; preds = %2
  %19 = getelementptr inbounds nuw %"struct.open_spiel::colored_trails::Board", ptr %8, i32 0, i32 4
  %20 = getelementptr inbounds nuw %"struct.open_spiel::colored_trails::Board", ptr %0, i32 0, i32 4
  %21 = invoke noundef nonnull align 8 dereferenceable(24) ptr @_ZNSt6vectorIiSaIiEEaSERKS1_(ptr noundef nonnull align 8 dereferenceable(24) %20, ptr noundef nonnull align 8 dereferenceable(24) %19)
          to label %22 unwind label %32

22:                                               ; preds = %18
  %23 = getelementptr inbounds nuw %"struct.open_spiel::colored_trails::Board", ptr %8, i32 0, i32 5
  %24 = getelementptr inbounds nuw %"struct.open_spiel::colored_trails::Board", ptr %0, i32 0, i32 5
  %25 = invoke noundef nonnull align 8 dereferenceable(24) ptr @_ZNSt6vectorIS_IiSaIiEESaIS1_EEaSERKS3_(ptr noundef nonnull align 8 dereferenceable(24) %24, ptr noundef nonnull align 8 dereferenceable(24) %23)
          to label %26 unwind label %32

26:                                               ; preds = %22
  %27 = getelementptr inbounds nuw %"struct.open_spiel::colored_trails::Board", ptr %8, i32 0, i32 6
  %28 = getelementptr inbounds nuw %"struct.open_spiel::colored_trails::Board", ptr %0, i32 0, i32 6
  %29 = invoke noundef nonnull align 8 dereferenceable(24) ptr @_ZNSt6vectorIiSaIiEEaSERKS1_(ptr noundef nonnull align 8 dereferenceable(24) %28, ptr noundef nonnull align 8 dereferenceable(24) %27)
          to label %30 unwind label %32

30:                                               ; preds = %26
  store i1 true, ptr %5, align 1
  %31 = load i1, ptr %5, align 1
  br i1 %31, label %37, label %36

32:                                               ; preds = %26, %22, %18, %2
  %33 = landingpad { ptr, i32 }
          cleanup
  %34 = extractvalue { ptr, i32 } %33, 0
  store ptr %34, ptr %6, align 8
  %35 = extractvalue { ptr, i32 } %33, 1
  store i32 %35, ptr %7, align 4
  call void @_ZN10open_spiel14colored_trails5BoardD2Ev(ptr noundef nonnull align 8 dereferenceable(112) %0) #3
  br label %38

36:                                               ; preds = %30
  call void @_ZN10open_spiel14colored_trails5BoardD2Ev(ptr noundef nonnull align 8 dereferenceable(112) %0) #3
  br label %37

37:                                               ; preds = %36, %30
  ret void

38:                                               ; preds = %32
  %39 = load ptr, ptr %6, align 8
  %40 = load i32, ptr %7, align 4
  %41 = insertvalue { ptr, i32 } poison, ptr %39, 0
  %42 = insertvalue { ptr, i32 } %41, i32 %40, 1
  resume { ptr, i32 } %42
}