; Function Attrs: mustprogress uwtable
define void @_ZNK10open_spiel14colored_trails5Board5CloneEv(ptr dead_on_unwind noalias writable sret(%"struct.open_spiel::colored_trails::Board") align 8 %0, ptr noundef nonnull align 8 dereferenceable(112) %1) local_unnamed_addr #3 align 2 personality ptr @__gxx_personality_v0 {
  %3 = load i32, ptr %1, align 8
  %4 = getelementptr inbounds nuw i8, ptr %1, i64 4
  %5 = load i32, ptr %4, align 4
  %6 = getelementptr inbounds nuw i8, ptr %1, i64 8
  %7 = load i32, ptr %6, align 8
  tail call void @_ZN10open_spiel14colored_trails5BoardC1Eiii(ptr noundef nonnull align 8 dereferenceable(112) %0, i32 noundef %3, i32 noundef %5, i32 noundef %7)
  %8 = getelementptr inbounds nuw i8, ptr %1, i64 16
  %9 = getelementptr inbounds nuw i8, ptr %0, i64 16
  %10 = invoke noundef nonnull align 8 dereferenceable(24) ptr @_ZNSt6vectorIiSaIiEEaSERKS1_(ptr noundef nonnull align 8 dereferenceable(24) %9, ptr noundef nonnull align 8 dereferenceable(24) %8)
          to label %11 unwind label %23

11:                                               ; preds = %2
  %12 = getelementptr inbounds nuw i8, ptr %1, i64 40
  %13 = getelementptr inbounds nuw i8, ptr %0, i64 40
  %14 = invoke noundef nonnull align 8 dereferenceable(24) ptr @_ZNSt6vectorIiSaIiEEaSERKS1_(ptr noundef nonnull align 8 dereferenceable(24) %13, ptr noundef nonnull align 8 dereferenceable(24) %12)
          to label %15 unwind label %23

15:                                               ; preds = %11
  %16 = getelementptr inbounds nuw i8, ptr %1, i64 64
  %17 = getelementptr inbounds nuw i8, ptr %0, i64 64
  %18 = invoke noundef nonnull align 8 dereferenceable(24) ptr @_ZNSt6vectorIS_IiSaIiEESaIS1_EEaSERKS3_(ptr noundef nonnull align 8 dereferenceable(24) %17, ptr noundef nonnull align 8 dereferenceable(24) %16)
          to label %19 unwind label %23

19:                                               ; preds = %15
  %20 = getelementptr inbounds nuw i8, ptr %1, i64 88
  %21 = getelementptr inbounds nuw i8, ptr %0, i64 88
  %22 = invoke noundef nonnull align 8 dereferenceable(24) ptr @_ZNSt6vectorIiSaIiEEaSERKS1_(ptr noundef nonnull align 8 dereferenceable(24) %21, ptr noundef nonnull align 8 dereferenceable(24) %20)
          to label %25 unwind label %23

23:                                               ; preds = %19, %15, %11, %2
  %24 = landingpad { ptr, i32 }
          cleanup
  tail call void @_ZN10open_spiel14colored_trails5BoardD2Ev(ptr noundef nonnull align 8 dereferenceable(112) %0) #27
  resume { ptr, i32 } %24

25:                                               ; preds = %19
  ret void
}